(dp1
S'customer'
p2
S'INTEGER REFERENCES customer(id) ON DELETE CASCADE'
p3
sS'code'
p4
S'CHAR(512)'
p5
sS'total_amount'
p6
S'DOUBLE'
p7
sS'emitted'
p8
S'CHAR(1)'
p9
sS'emitted_at'
p10
S'TIME'
p11
sS'created_on'
p12
S'TIMESTAMP'
p13
sS'remarks'
p14
S'TEXT'
p15
sS'tax_percentage'
p16
S'INTEGER'
p17
sS'id'
p18
S'INTEGER PRIMARY KEY AUTOINCREMENT'
p19
sS'emitted_on'
p20
S'DATE'
p21
s.