(dp1
S'customer'
p2
S'INTEGER REFERENCES customers(id) ON DELETE CASCADE'
p3
sS'due_to_date'
p4
S'DATE'
p5
sS'description'
p6
S'CHAR(512)'
p7
sS'value'
p8
S'INTEGER'
p9
sS'assign_date'
p10
S'DATE'
p11
sS'cost'
p12
S'INTEGER'
p13
sS'id'
p14
S'INTEGER PRIMARY KEY AUTOINCREMENT'
p15
sS'name'
p16
S'CHAR(512)'
p17
s.