(dp1
S'surname'
p2
S'CHAR(512)'
p3
sS'name'
p4
S'CHAR(512)'
p5
sS'montly'
p6
S'INTEGER'
p7
sS'employed'
p8
S'DATE'
p9
sS'id'
p10
S'INTEGER PRIMARY KEY AUTOINCREMENT'
p11
sS'user'
p12
S'CHAR(512)'
p13
s.