(dp1
S'finish'
p2
S'TIME'
p3
sS'work'
p4
S'INTEGER REFERENCES works(id) ON DELETE CASCADE'
p5
sS'note'
p6
S'CHAR(512)'
p7
sS'start'
p8
S'TIME'
p9
sS'user'
p10
S'INTEGER REFERENCES users(id) ON DELETE CASCADE'
p11
sS'id'
p12
S'INTEGER PRIMARY KEY AUTOINCREMENT'
p13
s.