(dp1
S'due_to_date'
p2
S'CHAR(512)'
p3
sS'cost'
p4
S'CHAR(512)'
p5
sS'description'
p6
S'CHAR(512)'
p7
sS'value'
p8
S'CHAR(512)'
p9
sS'assign_date'
p10
S'CHAR(512)'
p11
sS'client'
p12
S'CHAR(512)'
p13
sS'id'
p14
S'INTEGER PRIMARY KEY AUTOINCREMENT'
p15
sS'name'
p16
S'CHAR(512)'
p17
s.