(dp1
S'address_city'
p2
S'CHAR(512)'
p3
sS'fax'
p4
S'CHAR(512)'
p5
sS'name'
p6
S'CHAR(512)'
p7
sS'mobile'
p8
S'CHAR(512)'
p9
sS'address_county'
p10
S'CHAR(512)'
p11
sS'address_road'
p12
S'CHAR(512)'
p13
sS'id'
p14
S'INTEGER PRIMARY KEY AUTOINCREMENT'
p15
sS'phone'
p16
S'CHAR(512)'
p17
sS'piva'
p18
S'CHAR(512)'
p19
sS'address_num'
p20
S'CHAR(512)'
p21
sS'address_state'
p22
S'CHAR(512)'
p23
sS'email'
p24
S'CHAR(512)'
p25
sS'address_zip'
p26
S'CHAR(512)'
p27
s.