(dp1
S'fax'
p2
S'CHAR(512)'
p3
sS'name'
p4
S'CHAR(512)'
p5
sS'url'
p6
S'CHAR(512)'
p7
sS'address_county'
p8
S'CHAR(512)'
p9
sS'address_city'
p10
S'CHAR(512)'
p11
sS'address_road'
p12
S'CHAR(512)'
p13
sS'phone'
p14
S'CHAR(512)'
p15
sS'piva'
p16
S'CHAR(512)'
p17
sS'email'
p18
S'CHAR(512)'
p19
sS'address_num'
p20
S'CHAR(512)'
p21
sS'address'
p22
S'CHAR(512)'
p23
sS'address_state'
p24
S'CHAR(512)'
p25
sS'id'
p26
S'INTEGER PRIMARY KEY AUTOINCREMENT'
p27
sS'address_zip'
p28
S'CHAR(512)'
p29
s.