(dp1
S'category'
p2
S'INTEGER REFERENCES category(id) ON DELETE CASCADE'
p3
sS'name'
p4
S'CHAR(512)'
p5
sS'price'
p6
S'DOUBLE'
p7
sS'owner'
p8
S'CHAR(512)'
p9
sS'id'
p10
S'INTEGER PRIMARY KEY AUTOINCREMENT'
p11
sS'quantity'
p12
S'INTEGER'
p13
s.