(dp1
S'customer'
p2
S'INTEGER REFERENCES customers(id) ON DELETE CASCADE'
p3
sS'due_to_date'
p4
S'CHAR(512)'
p5
sS'cost'
p6
S'CHAR(512)'
p7
sS'description'
p8
S'CHAR(512)'
p9
sS'value'
p10
S'CHAR(512)'
p11
sS'assign_date'
p12
S'CHAR(512)'
p13
sS'client'
p14
S'CHAR(512)'
p15
sS'id'
p16
S'INTEGER PRIMARY KEY AUTOINCREMENT'
p17
sS'name'
p18
S'CHAR(512)'
p19
s.