(dp1
S'address_city'
p2
S'TEXT'
p3
sS'name'
p4
S'TEXT'
p5
sS'mobile'
p6
S'TEXT'
p7
sS'address_county'
p8
S'TEXT'
p9
sS'fax'
p10
S'TEXT'
p11
sS'address_road'
p12
S'TEXT'
p13
sS'phone'
p14
S'TEXT'
p15
sS'piva'
p16
S'TEXT'
p17
sS'address_num'
p18
S'TEXT'
p19
sS'address_state'
p20
S'TEXT'
p21
sS'id'
p22
S'INTEGER PRIMARY KEY AUTOINCREMENT'
p23
sS'email'
p24
S'TEXT'
p25
sS'address_zip'
p26
S'TEXT'
p27
s.