(dp1
S'finish'
p2
S'TIMESTAMP'
p3
sS'work'
p4
S'INTEGER REFERENCES works(id) ON DELETE CASCADE'
p5
sS'note'
p6
S'CHAR(512)'
p7
sS'start'
p8
S'TIMESTAMP'
p9
sS'user'
p10
S'INTEGER REFERENCES auth_user(id) ON DELETE CASCADE'
p11
sS'type'
p12
S'CHAR(512)'
p13
sS'id'
p14
S'INTEGER PRIMARY KEY AUTOINCREMENT'
p15
s.