(dp1
S'first_name'
p2
S'CHAR(512)'
p3
sS'last_name'
p4
S'CHAR(512)'
p5
sS'email'
p6
S'CHAR(512)'
p7
sS'reset_password_key'
p8
S'CHAR(512)'
p9
sS'montly'
p10
S'INTEGER'
p11
sS'employed'
p12
S'DATE'
p13
sS'password'
p14
S'CHAR(512)'
p15
sS'registration_key'
p16
S'CHAR(512)'
p17
sS'id'
p18
S'INTEGER PRIMARY KEY AUTOINCREMENT'
p19
s.