(dp1
S'output'
p2
S''
sS'layer'
p3
S'/home/web2py/applications/isys/controllers/hours.py'
p4
sS'code'
p5
S"# -*- coding: utf-8 -*- \n\n#########################################################################\n## This is the controller for hours managment\n## - index is the default action of any application\n## - user is required for authentication and authorization\n## - download is for downloading files uploaded in the db (does streaming)\n## - call exposes all registered services (none by default)\n######################################################################### \n    \ndef index():\n    form=crud.create(db.hours)\n    hours=db(db.hours.id>0).select(orderby=db.hours.name)\n    return dict(hours=hours,form=form)\n\ndef add():\n    form=crud.create(db.hours,next=url('index'))\n    hours=db(db.hours.id>0).select(orderby=db.hours.name)\n    return dict(hours=hours,form=form)\n\ndef edit():\n    hours_id=request.args(0)\n    hours=db.hours[hours_id]\n    form=crud.update(db.hours,hours,next=url('index'))\n    return dict(form=form)\n\nresponse._vars=response._caller(index)\n"
p6
sS'traceback'
p7
S'Traceback (most recent call last):\n  File "/home/web2py/gluon/restricted.py", line 178, in restricted\n    exec ccode in environment\n  File "/home/web2py/applications/isys/controllers/hours.py", line 27, in <module>\n  File "/home/web2py/gluon/globals.py", line 96, in <lambda>\n    self._caller = lambda f: f()\n  File "/home/web2py/applications/isys/controllers/hours.py", line 12, in index\n    form=crud.create(db.hours)\n  File "/home/web2py/gluon/sql.py", line 1329, in __getattr__\n    return dict.__getitem__(self,key)\nKeyError: \'hours\'\n'
p8
s.