(dp1
S'output'
p2
S''
sS'layer'
p3
S'/home/web2py/applications/isys/controllers/works.py'
p4
sS'code'
p5
S"# -*- coding: utf-8 -*- \n\n#########################################################################\n## This is the controller for works managment\n## - index is the default action of any application\n## - user is required for authentication and authorization\n## - download is for downloading files uploaded in the db (does streaming)\n## - call exposes all registered services (none by default)\n######################################################################### \n    \ndef index():\n    form=crud.create(db.works)\n    works=db(db.works.id>0).select(orderby=db.works.name)\n    return dict(works=works,form=form)\n\ndef add():\n    form=crud.create(db.works,next=url('index'))\n    works=db(db.works.id>0).select(orderby=db.works.name)\n    return dict(works=works,form=form)\n\ndef edit():\n    works_id=request.args(0)\n    works=db.works[works_id]\n    form=crud.update(db.works,works,next=url('index'))\n    return dict(form=form)\n\nresponse._vars=response._caller(index)\n"
p6
sS'traceback'
p7
S'Traceback (most recent call last):\n  File "/home/web2py/gluon/restricted.py", line 178, in restricted\n    exec ccode in environment\n  File "/home/web2py/applications/isys/controllers/works.py", line 27, in <module>\n  File "/home/web2py/gluon/globals.py", line 96, in <lambda>\n    self._caller = lambda f: f()\n  File "/home/web2py/applications/isys/controllers/works.py", line 13, in index\n    works=db(db.works.id>0).select(orderby=db.works.name)\n  File "/home/web2py/gluon/sql.py", line 3144, in select\n    return self.parse(db,rows,self.colnames,SetClass=Set)\n  File "/home/web2py/gluon/sql.py", line 3206, in parse\n    str(value)[:10].strip().split(\'-\')]\nValueError: invalid literal for int() with base 10: \'assf\'\n'
p8
s.